; ModuleID = '22/1065.c'
source_filename = "22/1065.c"
target datalayout = "e-m:e-p270:32:32-p271:32:32-p272:64:64-i64:64-f80:128-n8:16:32:64-S128"
target triple = "x86_64-pc-linux-gnu"

@.str = private unnamed_addr constant [5 x i8] c"%d%c\00", align 1
@.str.1 = private unnamed_addr constant [3 x i8] c"No\00", align 1
@.str.2 = private unnamed_addr constant [3 x i8] c"%d\00", align 1

; Function Attrs: noinline nounwind uwtable
define dso_local void @main() #0 {
  %1 = alloca i32, align 4
  %2 = alloca i32, align 4
  %3 = alloca i32, align 4
  %4 = alloca i32, align 4
  %5 = alloca i8, align 1
  store i32 1, i32* %2, align 4
  br label %6

6:                                                ; preds = %39, %0
  %7 = call i32 (i8*, ...) @__isoc99_scanf(i8* getelementptr inbounds ([5 x i8], [5 x i8]* @.str, i64 0, i64 0), i32* %1, i8* %5)
  %8 = icmp ne i32 %7, 0
  br i1 %8, label %9, label %13

9:                                                ; preds = %6
  %10 = load i8, i8* %5, align 1
  %11 = sext i8 %10 to i32
  %12 = icmp ne i32 %11, 10
  br label %13

13:                                               ; preds = %9, %6
  %14 = phi i1 [ false, %6 ], [ %12, %9 ]
  br i1 %14, label %15, label %42

15:                                               ; preds = %13
  %16 = load i32, i32* %2, align 4
  %17 = icmp eq i32 %16, 1
  br i1 %17, label %18, label %20

18:                                               ; preds = %15
  %19 = load i32, i32* %1, align 4
  store i32 %19, i32* %3, align 4
  store i32 0, i32* %4, align 4
  br label %39

20:                                               ; preds = %15
  %21 = load i32, i32* %1, align 4
  %22 = load i32, i32* %3, align 4
  %23 = icmp sgt i32 %21, %22
  br i1 %23, label %24, label %27

24:                                               ; preds = %20
  %25 = load i32, i32* %3, align 4
  store i32 %25, i32* %4, align 4
  %26 = load i32, i32* %1, align 4
  store i32 %26, i32* %3, align 4
  br label %38

27:                                               ; preds = %20
  %28 = load i32, i32* %1, align 4
  %29 = load i32, i32* %4, align 4
  %30 = icmp sgt i32 %28, %29
  br i1 %30, label %31, label %37

31:                                               ; preds = %27
  %32 = load i32, i32* %1, align 4
  %33 = load i32, i32* %3, align 4
  %34 = icmp ne i32 %32, %33
  br i1 %34, label %35, label %37

35:                                               ; preds = %31
  %36 = load i32, i32* %1, align 4
  store i32 %36, i32* %4, align 4
  br label %37

37:                                               ; preds = %35, %31, %27
  br label %38

38:                                               ; preds = %37, %24
  br label %39

39:                                               ; preds = %38, %18
  %40 = load i32, i32* %2, align 4
  %41 = add nsw i32 %40, 1
  store i32 %41, i32* %2, align 4
  br label %6

42:                                               ; preds = %13
  %43 = load i32, i32* %2, align 4
  %44 = icmp eq i32 %43, 1
  br i1 %44, label %45, label %47

45:                                               ; preds = %42
  %46 = call i32 (i8*, ...) @printf(i8* getelementptr inbounds ([3 x i8], [3 x i8]* @.str.1, i64 0, i64 0))
  br label %74

47:                                               ; preds = %42
  %48 = load i32, i32* %1, align 4
  %49 = load i32, i32* %3, align 4
  %50 = icmp sgt i32 %48, %49
  br i1 %50, label %51, label %54

51:                                               ; preds = %47
  %52 = load i32, i32* %3, align 4
  store i32 %52, i32* %4, align 4
  %53 = load i32, i32* %1, align 4
  store i32 %53, i32* %3, align 4
  br label %65

54:                                               ; preds = %47
  %55 = load i32, i32* %1, align 4
  %56 = load i32, i32* %4, align 4
  %57 = icmp sgt i32 %55, %56
  br i1 %57, label %58, label %64

58:                                               ; preds = %54
  %59 = load i32, i32* %1, align 4
  %60 = load i32, i32* %3, align 4
  %61 = icmp ne i32 %59, %60
  br i1 %61, label %62, label %64

62:                                               ; preds = %58
  %63 = load i32, i32* %1, align 4
  store i32 %63, i32* %4, align 4
  br label %64

64:                                               ; preds = %62, %58, %54
  br label %65

65:                                               ; preds = %64, %51
  %66 = load i32, i32* %4, align 4
  %67 = icmp eq i32 %66, 0
  br i1 %67, label %68, label %70

68:                                               ; preds = %65
  %69 = call i32 (i8*, ...) @printf(i8* getelementptr inbounds ([3 x i8], [3 x i8]* @.str.1, i64 0, i64 0))
  br label %73

70:                                               ; preds = %65
  %71 = load i32, i32* %4, align 4
  %72 = call i32 (i8*, ...) @printf(i8* getelementptr inbounds ([3 x i8], [3 x i8]* @.str.2, i64 0, i64 0), i32 %71)
  br label %73

73:                                               ; preds = %70, %68
  br label %74

74:                                               ; preds = %73, %45
  ret void
}

declare dso_local i32 @__isoc99_scanf(i8*, ...) #1

declare dso_local i32 @printf(i8*, ...) #1


!llvm.module.flags = !{!0}
!llvm.ident = !{!1}

!0 = !{i32 1, !"wchar_size", i32 4}
!1 = !{!"clang version 10.0.0-4ubuntu1 "}
