; ModuleID = 'source-C-CXX/21/1065.c'
source_filename = "source-C-CXX/21/1065.c"
target datalayout = "e-m:e-p270:32:32-p271:32:32-p272:64:64-i64:64-f80:128-n8:16:32:64-S128"
target triple = "x86_64-pc-linux-gnu"

@.str = private unnamed_addr constant [5 x i8] c"%d%c\00", align 1
@.str.1 = private unnamed_addr constant [3 x i8] c"No\00", align 1
@.str.2 = private unnamed_addr constant [3 x i8] c"%d\00", align 1

; Function Attrs: nofree nounwind sspstrong uwtable
define dso_local void @main() local_unnamed_addr #0 {
  %1 = alloca i32, align 4
  %2 = alloca i8, align 1
  %3 = bitcast i32* %1 to i8*
  call void @llvm.lifetime.start.p0i8(i64 4, i8* nonnull %3) #3
  call void @llvm.lifetime.start.p0i8(i64 1, i8* nonnull %2) #3
  %4 = call i32 (i8*, ...) @__isoc99_scanf(i8* getelementptr inbounds ([5 x i8], [5 x i8]* @.str, i64 0, i64 0), i32* nonnull %1, i8* nonnull %2)
  %5 = icmp ne i32 %4, 0
  %6 = load i8, i8* %2, align 1
  %7 = icmp ne i8 %6, 10
  %8 = select i1 %5, i1 %7, i1 false
  br i1 %8, label %9, label %32

9:                                                ; preds = %0
  %10 = load i32, i32* %1, align 4, !tbaa !5
  %11 = call i32 (i8*, ...) @__isoc99_scanf(i8* getelementptr inbounds ([5 x i8], [5 x i8]* @.str, i64 0, i64 0), i32* nonnull %1, i8* nonnull %2)
  %12 = icmp ne i32 %11, 0
  %13 = load i8, i8* %2, align 1
  %14 = icmp ne i8 %13, 10
  %15 = select i1 %12, i1 %14, i1 false
  br i1 %15, label %16, label %34

16:                                               ; preds = %9, %16
  %17 = phi i32 [ %26, %16 ], [ 0, %9 ]
  %18 = phi i32 [ %25, %16 ], [ %10, %9 ]
  %19 = load i32, i32* %1, align 4, !tbaa !5
  %20 = icmp sgt i32 %19, %18
  %21 = icmp sle i32 %19, %17
  %22 = icmp eq i32 %19, %18
  %23 = select i1 %21, i1 true, i1 %22
  %24 = select i1 %23, i32 %17, i32 %19
  %25 = select i1 %20, i32 %19, i32 %18
  %26 = select i1 %20, i32 %18, i32 %24
  %27 = call i32 (i8*, ...) @__isoc99_scanf(i8* getelementptr inbounds ([5 x i8], [5 x i8]* @.str, i64 0, i64 0), i32* nonnull %1, i8* nonnull %2)
  %28 = icmp ne i32 %27, 0
  %29 = load i8, i8* %2, align 1
  %30 = icmp ne i8 %29, 10
  %31 = select i1 %28, i1 %30, i1 false
  br i1 %31, label %16, label %34, !llvm.loop !9

32:                                               ; preds = %0
  %33 = call i32 (i8*, ...) @printf(i8* nonnull dereferenceable(1) getelementptr inbounds ([3 x i8], [3 x i8]* @.str.1, i64 0, i64 0))
  br label %49

34:                                               ; preds = %16, %9
  %35 = phi i32 [ %10, %9 ], [ %25, %16 ]
  %36 = phi i32 [ 0, %9 ], [ %26, %16 ]
  %37 = load i32, i32* %1, align 4, !tbaa !5
  %38 = icmp sgt i32 %37, %35
  %39 = icmp sle i32 %37, %36
  %40 = icmp eq i32 %37, %35
  %41 = select i1 %39, i1 true, i1 %40
  %42 = select i1 %41, i32 %36, i32 %37
  %43 = select i1 %38, i32 %35, i32 %42
  %44 = icmp eq i32 %43, 0
  br i1 %44, label %45, label %47

45:                                               ; preds = %34
  %46 = call i32 (i8*, ...) @printf(i8* nonnull dereferenceable(1) getelementptr inbounds ([3 x i8], [3 x i8]* @.str.1, i64 0, i64 0))
  br label %49

47:                                               ; preds = %34
  %48 = call i32 (i8*, ...) @printf(i8* nonnull dereferenceable(1) getelementptr inbounds ([3 x i8], [3 x i8]* @.str.2, i64 0, i64 0), i32 %43)
  br label %49

49:                                               ; preds = %45, %47, %32
  call void @llvm.lifetime.end.p0i8(i64 1, i8* nonnull %2) #3
  call void @llvm.lifetime.end.p0i8(i64 4, i8* nonnull %3) #3
  ret void
}

; Function Attrs: argmemonly mustprogress nofree nosync nounwind willreturn
declare void @llvm.lifetime.start.p0i8(i64 immarg, i8* nocapture) #1

; Function Attrs: nofree nounwind
declare noundef i32 @__isoc99_scanf(i8* nocapture noundef readonly, ...) local_unnamed_addr #2

; Function Attrs: nofree nounwind
declare noundef i32 @printf(i8* nocapture noundef readonly, ...) local_unnamed_addr #2

; Function Attrs: argmemonly mustprogress nofree nosync nounwind willreturn
declare void @llvm.lifetime.end.p0i8(i64 immarg, i8* nocapture) #1


!llvm.module.flags = !{!0, !1, !2, !3}
!llvm.ident = !{!4}

!0 = !{i32 1, !"wchar_size", i32 4}
!1 = !{i32 7, !"PIC Level", i32 2}
!2 = !{i32 7, !"PIE Level", i32 2}
!3 = !{i32 7, !"uwtable", i32 1}
!4 = !{!"clang version 13.0.0"}
!5 = !{!6, !6, i64 0}
!6 = !{!"int", !7, i64 0}
!7 = !{!"omnipotent char", !8, i64 0}
!8 = !{!"Simple C/C++ TBAA"}
!9 = distinct !{!9, !10, !11}
!10 = !{!"llvm.loop.mustprogress"}
!11 = !{!"llvm.loop.peeled.count", i32 1}
